target datalayout = "e-m:e-p270:32:32-p271:32:32-p272:64:64-i64:64-i128:128-f80:128-n8:16:32:64-S128"
target triple = "x86_64-pc-linux-gnu"

%struct.Curl_cftype = type { ptr, i32, i32, ptr, ptr, ptr, ptr, ptr, ptr, ptr, ptr, ptr, ptr, ptr, ptr, ptr }
%struct.Curl_cfilter = type { ptr, ptr, ptr, ptr, i32, i8 }
%struct.cf_call_data = type { ptr }
%struct.cf_h2_proxy_ctx = type { ptr, %struct.cf_call_data, %struct.bufq, %struct.bufq, %struct.tunnel_stream, i32, i32, i8 }
%struct.bufq = type { ptr, ptr, ptr, ptr, i64, i64, i64, i32 }
%struct.tunnel_stream = type { ptr, %struct.bufq, %struct.bufq, ptr, i32, i32, i32, i8 }
%struct.Curl_easy = type { i32, i64, i64, ptr, %struct.Curl_llist_node, %struct.Curl_llist_node, i32, i32, %struct.Curl_message, %struct.easy_pollset, %struct.Names, ptr, ptr, ptr, %struct.SingleRequest, %struct.UserDefined, ptr, ptr, %struct.Progress, %struct.UrlState, ptr, %struct.PureInfo, %struct.curl_tlssessioninfo }
%struct.Curl_llist_node = type { ptr, ptr, ptr, ptr }
%struct.Curl_message = type { %struct.Curl_llist_node, %struct.CURLMsg }
%struct.CURLMsg = type { i32, ptr, %union.anon }
%union.anon = type { ptr }
%struct.easy_pollset = type { [5 x i32], i32, [5 x i8] }
%struct.Names = type { ptr, i32 }
%struct.SingleRequest = type <{ i64, i64, i64, i64, %struct.curltime, i32, i32, i32, i32, i64, i32, i32, i32, i32, ptr, ptr, %struct.bufq, i64, i64, ptr, ptr, %union.anon.0, ptr, i8, i32, [3 x i8] }>
%struct.curltime = type { i64, i32 }
%union.anon.0 = type { ptr }
%struct.UserDefined = type <{ ptr, ptr, ptr, ptr, ptr, ptr, i16, [6 x i8], i64, i64, i64, ptr, ptr, i64, i16, i16, [4 x i8], ptr, ptr, ptr, ptr, ptr, ptr, ptr, ptr, ptr, ptr, ptr, ptr, ptr, ptr, ptr, ptr, ptr, ptr, ptr, ptr, ptr, ptr, ptr, i32, i32, i32, i32, i32, [4 x i8], i64, i64, i64, i64, i64, i64, i64, i64, ptr, ptr, %struct.curl_mimepart, ptr, ptr, i64, i8, i8, i8, [5 x i8], %struct.ssl_config_data, %struct.ssl_config_data, ptr, i16, i8, i8, [4 x i8], %struct.ssl_general_config, i32, i32, i32, [4 x i8], ptr, ptr, i8, [7 x i8], i64, i8, i8, i8, i8, i32, ptr, ptr, ptr, i8, i8, [2 x i8], i32, [63 x ptr], [8 x ptr], i32, i32, i32, [4 x i8], ptr, ptr, ptr, ptr, ptr, i8, [3 x i8], i32, i32, i32, i64, %struct.Curl_data_priority, ptr, ptr, i64, ptr, i64, ptr, ptr, ptr, i8, [3 x i8], i32, i8, i8, i64, [6 x i8] }>
%struct.curl_mimepart = type { ptr, ptr, i32, i32, ptr, ptr, ptr, ptr, ptr, ptr, ptr, ptr, ptr, ptr, ptr, i64, %struct.mime_state, ptr, %struct.mime_encoder_state, i64 }
%struct.mime_state = type { i32, ptr, i64 }
%struct.mime_encoder_state = type { i64, i64, i64, [256 x i8] }
%struct.ssl_config_data = type { %struct.ssl_primary_config, i64, ptr, ptr, ptr, ptr, ptr, ptr, ptr, i16 }
%struct.ssl_primary_config = type { ptr, ptr, ptr, ptr, ptr, ptr, ptr, ptr, ptr, ptr, ptr, ptr, i8, i32, i8, i8 }
%struct.ssl_general_config = type { i64, i32 }
%struct.Curl_data_priority = type { ptr, ptr, i32, i8 }
%struct.Progress = type { i64, %struct.pgrs_dir, %struct.pgrs_dir, i64, i64, i32, i32, i64, i64, i64, i64, i64, i64, i64, i64, i64, %struct.curltime, %struct.curltime, %struct.curltime, %struct.curltime, [6 x i64], [6 x %struct.curltime], i32, i8 }
%struct.pgrs_dir = type { i64, i64, i64, %struct.pgrs_measure }
%struct.pgrs_measure = type { %struct.curltime, i64 }
%struct.UrlState = type { %struct.curltime, i64, i64, %struct.dynbuf, ptr, i64, ptr, i32, i32, i32, ptr, i64, i32, i64, i32, ptr, %struct.digestdata, %struct.digestdata, %struct.auth, %struct.auth, %struct.Curl_async, ptr, %struct.curltime, %struct.Curl_tree, %struct.Curl_llist, [15 x %struct.time_node], ptr, ptr, i64, i64, %struct.Curl_data_priority, ptr, ptr, ptr, %struct.urlpieces, ptr, ptr, ptr, ptr, ptr, i64, %struct.dynbuf, %struct.Curl_llist, [2 x %struct.curl_header], ptr, i32, ptr, ptr, %struct.store_netrc, %struct.dynamically_allocated_data, i8, i8, i8, i8, i32 }
%struct.digestdata = type { ptr, ptr, ptr, ptr, ptr, ptr, i32, i8, i8 }
%struct.auth = type { i64, i64, i64, i8 }
%struct.Curl_async = type { ptr, ptr, ptr, ptr, i32, i32, i8 }
%struct.Curl_tree = type { ptr, ptr, ptr, ptr, %struct.curltime, ptr }
%struct.time_node = type { %struct.Curl_llist_node, %struct.curltime, i32 }
%struct.urlpieces = type { ptr, ptr, ptr, ptr, ptr, ptr, ptr, ptr }
%struct.dynbuf = type { ptr, i64, i64, i64 }
%struct.Curl_llist = type { ptr, ptr, ptr, i64 }
%struct.curl_header = type { ptr, ptr, i64, i64, i32, ptr }
%struct.store_netrc = type { %struct.dynbuf, ptr, i8 }
%struct.dynamically_allocated_data = type { ptr, ptr, ptr, ptr, ptr, ptr, ptr, ptr, ptr, ptr, ptr, ptr, ptr }
%struct.PureInfo = type { i32, i32, i32, i64, i64, i64, i64, i64, ptr, ptr, i64, i32, %struct.ip_quadruple, i32, ptr, i32, %struct.curl_certinfo, i32, i8 }
%struct.ip_quadruple = type { [46 x i8], [46 x i8], i32, i32 }
%struct.curl_certinfo = type { i32, ptr }
%struct.curl_tlssessioninfo = type { i32, ptr }
%struct.curl_trc_feat = type { ptr, i32 }
%struct.nghttp2_frame_hd = type { i64, i32, i8, i8, i8 }

@.str.28 = private unnamed_addr constant [11 x i8] c"[%d] -> %s\00", align 1

; Function Attrs: nounwind uwtable
define internal i32 @proxy_h2_on_frame_send(ptr noundef %0, ptr noundef %1, ptr noundef %2) #0 {
  %4 = alloca ptr, align 8
  %5 = alloca ptr, align 8
  %6 = alloca ptr, align 8
  %7 = alloca ptr, align 8
  %8 = alloca ptr, align 8
  %9 = alloca [256 x i8], align 16
  %10 = alloca i32, align 4
  store ptr %0, ptr %4, align 8, !tbaa !131
  store ptr %1, ptr %5, align 8, !tbaa !116
  store ptr %2, ptr %6, align 8, !tbaa !116
  call void @llvm.lifetime.start.p0(i64 8, ptr %7) #6
  %11 = load ptr, ptr %6, align 8, !tbaa !116
  store ptr %11, ptr %7, align 8, !tbaa !4
  call void @llvm.lifetime.start.p0(i64 8, ptr %8) #6
  %12 = load ptr, ptr %7, align 8, !tbaa !4
  %13 = icmp ne ptr %12, null
  br i1 %13, label %14, label %21

14:                                               ; preds = %3
  %15 = load ptr, ptr %7, align 8, !tbaa !4
  %16 = getelementptr inbounds nuw %struct.Curl_cfilter, ptr %15, i32 0, i32 2
  %17 = load ptr, ptr %16, align 8, !tbaa !11
  %18 = getelementptr inbounds nuw %struct.cf_h2_proxy_ctx, ptr %17, i32 0, i32 1
  %19 = getelementptr inbounds nuw %struct.cf_call_data, ptr %18, i32 0, i32 0
  %20 = load ptr, ptr %19, align 8, !tbaa !29
  br label %22

21:                                               ; preds = %3
  br label %22

22:                                               ; preds = %21, %14
  %23 = phi ptr [ %20, %14 ], [ null, %21 ]
  store ptr %23, ptr %8, align 8, !tbaa !9
  br label %24

24:                                               ; preds = %22
  br label %25

25:                                               ; preds = %24
  br label %26

26:                                               ; preds = %25
  %27 = load ptr, ptr %8, align 8, !tbaa !9
  %28 = icmp ne ptr %27, null
  br i1 %28, label %29, label %118

29:                                               ; preds = %26
  %30 = load ptr, ptr %8, align 8, !tbaa !9
  %31 = icmp ne ptr %30, null
  br i1 %31, label %32, label %118

32:                                               ; preds = %29
  %33 = load ptr, ptr %8, align 8, !tbaa !9
  %34 = getelementptr inbounds nuw %struct.Curl_easy, ptr %33, i32 0, i32 15
  %35 = getelementptr inbounds nuw %struct.UserDefined, ptr %34, i32 0, i32 124
  %36 = load i64, ptr %35, align 2
  %37 = lshr i64 %36, 27
  %38 = and i64 %37, 1
  %39 = trunc i64 %38 to i32
  %40 = icmp ne i32 %39, 0
  br i1 %40, label %41, label %118

41:                                               ; preds = %32
  %42 = load ptr, ptr %8, align 8, !tbaa !9
  %43 = getelementptr inbounds nuw %struct.Curl_easy, ptr %42, i32 0, i32 19
  %44 = getelementptr inbounds nuw %struct.UrlState, ptr %43, i32 0, i32 47
  %45 = load ptr, ptr %44, align 8, !tbaa !49
  %46 = icmp ne ptr %45, null
  br i1 %46, label %47, label %55

47:                                               ; preds = %41
  %48 = load ptr, ptr %8, align 8, !tbaa !9
  %49 = getelementptr inbounds nuw %struct.Curl_easy, ptr %48, i32 0, i32 19
  %50 = getelementptr inbounds nuw %struct.UrlState, ptr %49, i32 0, i32 47
  %51 = load ptr, ptr %50, align 8, !tbaa !49
  %52 = getelementptr inbounds nuw %struct.curl_trc_feat, ptr %51, i32 0, i32 1
  %53 = load i32, ptr %52, align 8, !tbaa !111
  %54 = icmp sge i32 %53, 1
  br i1 %54, label %55, label %118

55:                                               ; preds = %47, %41
  %56 = load ptr, ptr %7, align 8, !tbaa !4
  %57 = icmp ne ptr %56, null
  br i1 %57, label %58, label %118

58:                                               ; preds = %55
  %59 = load ptr, ptr %7, align 8, !tbaa !4
  %60 = getelementptr inbounds nuw %struct.Curl_cfilter, ptr %59, i32 0, i32 0
  %61 = load ptr, ptr %60, align 8, !tbaa !43
  %62 = getelementptr inbounds nuw %struct.Curl_cftype, ptr %61, i32 0, i32 2
  %63 = load i32, ptr %62, align 4, !tbaa !113
  %64 = icmp sge i32 %63, 1
  br i1 %64, label %65, label %118

65:                                               ; preds = %58
  call void @llvm.lifetime.start.p0(i64 256, ptr %9) #6
  call void @llvm.lifetime.start.p0(i64 4, ptr %10) #6
  %66 = load ptr, ptr %5, align 8, !tbaa !116
  %67 = getelementptr inbounds [256 x i8], ptr %9, i64 0, i64 0
  %68 = call i32 @proxy_h2_fr_print(ptr noundef %66, ptr noundef %67, i64 noundef 255)
  store i32 %68, ptr %10, align 4, !tbaa !22
  %69 = load i32, ptr %10, align 4, !tbaa !22
  %70 = sext i32 %69 to i64
  %71 = getelementptr inbounds [256 x i8], ptr %9, i64 0, i64 %70
  store i8 0, ptr %71, align 1, !tbaa !132
  br label %72

72:                                               ; preds = %65
  %73 = load ptr, ptr %8, align 8, !tbaa !9
  %74 = icmp ne ptr %73, null
  br i1 %74, label %75, label %115

75:                                               ; preds = %72
  %76 = load ptr, ptr %8, align 8, !tbaa !9
  %77 = getelementptr inbounds nuw %struct.Curl_easy, ptr %76, i32 0, i32 15
  %78 = getelementptr inbounds nuw %struct.UserDefined, ptr %77, i32 0, i32 124
  %79 = load i64, ptr %78, align 2
  %80 = lshr i64 %79, 27
  %81 = and i64 %80, 1
  %82 = trunc i64 %81 to i32
  %83 = icmp ne i32 %82, 0
  br i1 %83, label %84, label %115

84:                                               ; preds = %75
  %85 = load ptr, ptr %8, align 8, !tbaa !9
  %86 = getelementptr inbounds nuw %struct.Curl_easy, ptr %85, i32 0, i32 19
  %87 = getelementptr inbounds nuw %struct.UrlState, ptr %86, i32 0, i32 47
  %88 = load ptr, ptr %87, align 8, !tbaa !49
  %89 = icmp ne ptr %88, null
  br i1 %89, label %90, label %98

90:                                               ; preds = %84
  %91 = load ptr, ptr %8, align 8, !tbaa !9
  %92 = getelementptr inbounds nuw %struct.Curl_easy, ptr %91, i32 0, i32 19
  %93 = getelementptr inbounds nuw %struct.UrlState, ptr %92, i32 0, i32 47
  %94 = load ptr, ptr %93, align 8, !tbaa !49
  %95 = getelementptr inbounds nuw %struct.curl_trc_feat, ptr %94, i32 0, i32 1
  %96 = load i32, ptr %95, align 8, !tbaa !111
  %97 = icmp sge i32 %96, 1
  br i1 %97, label %98, label %115

98:                                               ; preds = %90, %84
  %99 = load ptr, ptr %7, align 8, !tbaa !4
  %100 = icmp ne ptr %99, null
  br i1 %100, label %101, label %115

101:                                              ; preds = %98
  %102 = load ptr, ptr %7, align 8, !tbaa !4
  %103 = getelementptr inbounds nuw %struct.Curl_cfilter, ptr %102, i32 0, i32 0
  %104 = load ptr, ptr %103, align 8, !tbaa !43
  %105 = getelementptr inbounds nuw %struct.Curl_cftype, ptr %104, i32 0, i32 2
  %106 = load i32, ptr %105, align 4, !tbaa !113
  %107 = icmp sge i32 %106, 1
  br i1 %107, label %108, label %115

108:                                              ; preds = %101
  %109 = load ptr, ptr %8, align 8, !tbaa !9
  %110 = load ptr, ptr %7, align 8, !tbaa !4
  %111 = load ptr, ptr %5, align 8, !tbaa !116
  %112 = getelementptr inbounds nuw %struct.nghttp2_frame_hd, ptr %111, i32 0, i32 1
  %113 = load i32, ptr %112, align 8, !tbaa !132
  %114 = getelementptr inbounds [256 x i8], ptr %9, i64 0, i64 0
  call void (ptr, ptr, ptr, ...) @Curl_trc_cf_infof(ptr noundef %109, ptr noundef %110, ptr noundef @.str.28, i32 noundef %113, ptr noundef %114)
  br label %115

115:                                              ; preds = %108, %101, %98, %90, %75, %72
  br label %116

116:                                              ; preds = %115
  br label %117

117:                                              ; preds = %116
  call void @llvm.lifetime.end.p0(i64 4, ptr %10) #6
  call void @llvm.lifetime.end.p0(i64 256, ptr %9) #6
  br label %118

118:                                              ; preds = %117, %58, %55, %47, %32, %29, %26
  call void @llvm.lifetime.end.p0(i64 8, ptr %8) #6
  call void @llvm.lifetime.end.p0(i64 8, ptr %7) #6
  ret i32 0
}