; Function Attrs: nounwind uwtable
define internal noundef i32 @proxy_h2_on_frame_send(ptr readnone captures(none) %0, ptr noundef readonly captures(none) %1, ptr noundef %2) #0 {
  %4 = alloca [256 x i8], align 16
  %.not34 = icmp eq ptr %2, null
  br i1 %.not34, label %.thread, label %5

5:                                                ; preds = %3
  %6 = getelementptr inbounds nuw i8, ptr %2, i64 16
  %7 = load ptr, ptr %6, align 8, !tbaa !4
  %8 = getelementptr inbounds nuw i8, ptr %7, i64 8
  %9 = load ptr, ptr %8, align 8, !tbaa !34
  %.not = icmp eq ptr %9, null
  br i1 %.not, label %.thread, label %10

10:                                               ; preds = %5
  %11 = getelementptr inbounds nuw i8, ptr %9, i64 2562
  %12 = load i64, ptr %11, align 2
  %13 = and i64 %12, 134217728
  %.not29 = icmp eq i64 %13, 0
  br i1 %.not29, label %.thread, label %14

14:                                               ; preds = %10
  %15 = getelementptr inbounds nuw i8, ptr %9, i64 4712
  %16 = load ptr, ptr %15, align 8, !tbaa !108
  %.not30 = icmp eq ptr %16, null
  br i1 %.not30, label %21, label %17

17:                                               ; preds = %14
  %18 = getelementptr inbounds nuw i8, ptr %16, i64 8
  %19 = load i32, ptr %18, align 8, !tbaa !109
  %20 = icmp sgt i32 %19, 0
  br i1 %20, label %21, label %.thread

21:                                               ; preds = %14, %17
  %22 = load ptr, ptr %2, align 8, !tbaa !111
  %23 = getelementptr inbounds nuw i8, ptr %22, i64 12
  %24 = load i32, ptr %23, align 4, !tbaa !112
  %25 = icmp sgt i32 %24, 0
  br i1 %25, label %26, label %.thread

26:                                               ; preds = %21
  call void @llvm.lifetime.start.p0(i64 256, ptr nonnull %4) #7
  %27 = call fastcc i32 @proxy_h2_fr_print(ptr noundef %1, ptr noundef %4)
  %28 = sext i32 %27 to i64
  %29 = getelementptr inbounds [256 x i8], ptr %4, i64 0, i64 %28
  store i8 0, ptr %29, align 1, !tbaa !122
  %30 = load i64, ptr %11, align 2
  %31 = and i64 %30, 134217728
  %.not31 = icmp eq i64 %31, 0
  br i1 %.not31, label %46, label %32

32:                                               ; preds = %26
  %33 = load ptr, ptr %15, align 8, !tbaa !108
  %.not32 = icmp eq ptr %33, null
  br i1 %.not32, label %38, label %34

34:                                               ; preds = %32
  %35 = getelementptr inbounds nuw i8, ptr %33, i64 8
  %36 = load i32, ptr %35, align 8, !tbaa !109
  %37 = icmp sgt i32 %36, 0
  br i1 %37, label %38, label %46

38:                                               ; preds = %32, %34
  %39 = load ptr, ptr %2, align 8, !tbaa !111
  %40 = getelementptr inbounds nuw i8, ptr %39, i64 12
  %41 = load i32, ptr %40, align 4, !tbaa !112
  %42 = icmp sgt i32 %41, 0
  br i1 %42, label %43, label %46

43:                                               ; preds = %38
  %44 = getelementptr inbounds nuw i8, ptr %1, i64 8
  %45 = load i32, ptr %44, align 8, !tbaa !122
  call void (ptr, ptr, ptr, ...) @Curl_trc_cf_infof(ptr noundef nonnull %9, ptr noundef nonnull %2, ptr noundef nonnull @.str.28, i32 noundef %45, ptr noundef nonnull %4) #7
  br label %46

46:                                               ; preds = %43, %38, %34, %26
  call void @llvm.lifetime.end.p0(i64 256, ptr nonnull %4) #7
  br label %.thread

.thread:                                          ; preds = %3, %46, %21, %17, %10, %5
  ret i32 0
}